(lp1
I30801
aI30762
aI30644
aI30445
aI30165
aI29802
aI29357
aI28828
aI28217
aI27522
aI26744
aI25884
aI24944
aI23923
aI22825
aI21650
aI20401
aI19081
aI17692
aI16238
aI14722
aI13148
aI11520
aI9844
aI8123
aI6363
aI4570
aI2748
aI906
aI-952
aI-2818
aI-4685
aI-6547
aI-8396
aI-10224
aI-12024
aI-13788
aI-15508
aI-17175
aI-18783
aI-20322
aI-21786
aI-23165
aI-24453
aI-25642
aI-26724
aI-27693
aI-28542
aI-29264
aI-29854
aI-30306
aI-30615
aI-30777
aI-30789
aI-30647
aI-30349
aI-29894
aI-29281
aI-28510
aI-27582
aI-26500
aI-25266
aI-23885
aI-22361
aI-20700
aI-18910
aI-16998
aI-14974
aI-12848
aI-10630
aI-8333
aI-5969
aI-3553
aI-1099
aI1378
aI3862
aI6337
aI8784
aI11188
aI13530
aI15793
aI17960
aI20011
aI21932
aI23703
aI25311
aI26738
aI27971
aI28996
aI29801
aI30376
aI30711
aI30799
aI30634
aI30213
aI29535
aI28600
aI27412
aI25975
aI24300
aI22395
aI20274
aI17952
aI15448
aI12781
aI9976
aI7055
aI4046
aI978
aI-2120
aI-5216
aI-8277
aI-11272
aI-14166
aI-16926
aI-19520
aI-21915
aI-24080
aI-25987
aI-27608
aI-28919
aI-29899
aI-30529
aI-30794
aI-30685
aI-30196
aI-29325
aI-28076
aI-26458
aI-24485
aI-22177
aI-19558
aI-16657
aI-13510
aI-10154
aI-6635
aI-2999
aI704
aI4420
aI8095
aI11671
aI15094
aI18305
aI21253
aI23884
aI26150
aI28007
aI29417
aI30348
aI30775
aI30679
aI30055
aI28900
aI27228
aI25056
aI22416
aI19346
aI15897
aI12126
aI8099
aI3889
aI-423
aI-4755
aI-9019
aI-13126
aI-16988
aI-20520
aI-23641
aI-26274
aI-28354
aI-29824
aI-30639
aI-30768
aI-30194
aI-28919
aI-26957
aI-24343
aI-21127
aI-17376
aI-13173
aI-8613
aI-3807
aI1128
aI6064
aI10873
aI15422
aI19585
aI23239
aI26273
aI28590
aI30110
aI30774
aI30546
aI29416
aI27400
aI24542
aI20913
aI16613
aI11763
aI6507
aI1008
aI-4558
aI-10009
aI-15160
aI-19828
aI-23845
aI-27056
aI-29335
aI-30580
aI-30726
aI-29748
aI-27660
aI-24518
aI-20424
aI-15516
aI-9971
aI-3997
aI2175
aI8298
aI14119
aI19389
aI23875
aI27370
aI29703
aI30750
aI30439
aI28759
aI25760
aI21554
aI16315
aI10272
aI3699
aI-3095
aI-9780
aI-16021
aI-21493
aI-25904
aI-29003
aI-30603
aI-30591
aI-28935
aI-25696
aI-21020
aI-15142
aI-8372
aI-1079
aI6321
aI13398
aI19721
aI24897
aI28587
aI30534
aI30582
aI28693
aI24950
aI19562
aI12852
aI5243
aI-2768
aI-10640
aI-17824
aI-23803
aI-28128
aI-30455
aI-30577
aI-28443
aI-24169
aI-18038
aI-10485
aI-2071
aI6559
aI14720
aI21744
aI27035
aI30121
aI30702
aI28679
aI24178
aI17543
aI9320
aI213
aI-8970
aI-17389
aI-24246
aI-28867
aI-30770
aI-29718
aI-25759
aI-19228
aI-10732
aI-1095
aI8715
aI17678
aI24835
aI29386
aI30791
aI28834
aI23670
aI15817
aI6118
aI-4345
aI-14366
aI-22753
aI-28471
aI-30776
aI-29321
aI-24215
aI-16032
aI-5757
aI5325
aI15778
aI24208
aI29445
aI30719
aI27778
aI20953
aI11133
aI-337
aI-11828
aI-21657
aI-28335
aI-30800
aI-28596
aI-21976
aI-11888
aI138
aI12215
aI22387
aI28948
aI30741
aI27374
aI19323
aI7890
aI-4990
aI-17065
aI-26156
aI-30556
aI-29369
aI-22711
aI-11734
aI1547
aI14610
aI24891
aI30303
aI29666
aI22999
aI11559
aI-2357
aI-15859
aI-26053
aI-30671
aI-28597
aI-20166
aI-7156
aI7560
aI20620
aI28948
aI30487
aI24742
aI12971
aI-2050
aI-16651
aI-27150
aI-30797
aI-26524
aI-15302
aI32
aI15446
aI26762
aI30799
aI26298
aI14371
aI-1721
aI-17409
aI-28102
aI-30543
aI-23850
aI-9885
aI7195
aI22135
aI30192
aI28671
aI17886
aI1196
aI-15986
aI-27909
aI-30433
aI-22519
aI-6730
aI11517
aI25760
aI30787
aI24591
aI9263
aI-9620
aI-24960
aI-30802
aI-24703
aI-8848
aI10620
aI25910
aI30702
aI22825
aI5351
aI-14487
aI-28217
aI-29766
aI-18233
aI1478
aI20629
aI30471
aI26291
aI9795
aI-11425
aI-27284
aI-29991
aI-17985
aI3024
aI22622
aI30798
aI23134
aI3354
aI-18301
aI-30280
aI-25925
aI-7339
aI15413
aI29626
aI27070
aI8925
aI-14510
aI-29509
aI-26976
aI-8138
aI15768
aI30036
aI25563
aI4864
aI-19057
aI-30721
aI-22252
aI1059
aI23768
aI30392
aI16090
aI-9509
aI-28513
aI-27227
aI-6239
aI19413
aI30801
aI19148
aI-7088
aI-28001
aI-27252
aI-5073
aI21242
aI30570
aI15032
aI-12968
aI-30272
aI-22098
aI4987
aI27877
aI26485
aI1652
aI-24765
aI-28859
aI-6521
aI21955
aI29948
aI9546
aI-20105
aI-30341
aI-10796
aI19561
aI30356
aI10299
aI-20437
aI-30005
aI-7998
aI22614
aI28958
aI3746
aI-25688
aI-26565
aI2534
aI28840
aI21937
aI-10607
aI-30732
aI-14213
aI19529
aI29517
aI3062
aI-27302
aI-23255
aI10523
aI30800
aI10883
aI-23473
aI-26558
aI6234
aI30596
aI12754
aI-22949
aI-26333
aI7873
aI30795
aI8827
aI-26215
aI-22234
aI-26215
aI8827
aI30795
aI7873
aI-26333
aI-22949
aI12754
aI30596
aI6234
aI-26558
aI-23473
aI10883
aI30800
aI10523
aI-23255
aI-27302
aI3062
aI29517
aI19529
aI-14213
aI-30732
aI-10607
aI21937
aI28840
aI2534
aI-26565
aI-25688
aI3746
aI28958
aI22614
aI-7998
aI-30005
aI-20437
aI10299
aI30356
aI19561
aI-10796
aI-30341
aI-20105
aI9546
aI29948
aI21955
aI-6521
aI-28859
aI-24765
aI1652
aI26485
aI27877
aI4987
aI-22098
aI-30272
aI-12968
aI15032
aI30570
aI21242
aI-5073
aI-27252
aI-28001
aI-7088
aI19148
aI30801
aI19413
aI-6239
aI-27227
aI-28513
aI-9509
aI16090
aI30392
aI23768
aI1059
aI-22252
aI-30721
aI-19057
aI4864
aI25563
aI30036
aI15768
aI-8138
aI-26976
aI-29509
aI-14510
aI8925
aI27070
aI29626
aI15413
aI-7339
aI-25925
aI-30280
aI-18301
aI3354
aI23134
aI30798
aI22622
aI3024
aI-17985
aI-29991
aI-27284
aI-11425
aI9795
aI26291
aI30471
aI20629
aI1478
aI-18233
aI-29766
aI-28217
aI-14487
aI5351
aI22825
aI30702
aI25910
aI10620
aI-8848
aI-24703
aI-30802
aI-24960
aI-9620
aI9263
aI24591
aI30787
aI25760
aI11517
aI-6730
aI-22519
aI-30433
aI-27909
aI-15986
aI1196
aI17886
aI28671
aI30192
aI22135
aI7195
aI-9885
aI-23850
aI-30543
aI-28102
aI-17409
aI-1721
aI14371
aI26298
aI30799
aI26762
aI15446
aI32
aI-15302
aI-26524
aI-30797
aI-27150
aI-16651
aI-2050
aI12971
aI24742
aI30487
aI28948
aI20620
aI7560
aI-7156
aI-20166
aI-28597
aI-30671
aI-26053
aI-15859
aI-2357
aI11559
aI22999
aI29666
aI30303
aI24891
aI14610
aI1547
aI-11734
aI-22711
aI-29369
aI-30556
aI-26156
aI-17065
aI-4990
aI7890
aI19323
aI27374
aI30741
aI28948
aI22387
aI12215
aI138
aI-11888
aI-21976
aI-28596
aI-30800
aI-28335
aI-21657
aI-11828
aI-337
aI11133
aI20953
aI27778
aI30719
aI29445
aI24208
aI15778
aI5325
aI-5757
aI-16032
aI-24215
aI-29321
aI-30776
aI-28471
aI-22753
aI-14366
aI-4345
aI6118
aI15817
aI23670
aI28834
aI30791
aI29386
aI24835
aI17678
aI8715
aI-1095
aI-10732
aI-19228
aI-25759
aI-29718
aI-30770
aI-28867
aI-24246
aI-17389
aI-8970
aI213
aI9320
aI17543
aI24178
aI28679
aI30702
aI30121
aI27035
aI21744
aI14720
aI6559
aI-2071
aI-10485
aI-18038
aI-24169
aI-28443
aI-30577
aI-30455
aI-28128
aI-23803
aI-17824
aI-10640
aI-2768
aI5243
aI12852
aI19562
aI24950
aI28693
aI30582
aI30534
aI28587
aI24897
aI19721
aI13398
aI6321
aI-1079
aI-8372
aI-15142
aI-21020
aI-25696
aI-28935
aI-30591
aI-30603
aI-29003
aI-25904
aI-21493
aI-16021
aI-9780
aI-3095
aI3699
aI10272
aI16315
aI21554
aI25760
aI28759
aI30439
aI30750
aI29703
aI27370
aI23875
aI19389
aI14119
aI8298
aI2175
aI-3997
aI-9971
aI-15516
aI-20424
aI-24518
aI-27660
aI-29748
aI-30726
aI-30580
aI-29335
aI-27056
aI-23845
aI-19828
aI-15160
aI-10009
aI-4558
aI1008
aI6507
aI11763
aI16613
aI20913
aI24542
aI27400
aI29416
aI30546
aI30774
aI30110
aI28590
aI26273
aI23239
aI19585
aI15422
aI10873
aI6064
aI1128
aI-3807
aI-8613
aI-13173
aI-17376
aI-21127
aI-24343
aI-26957
aI-28919
aI-30194
aI-30768
aI-30639
aI-29824
aI-28354
aI-26274
aI-23641
aI-20520
aI-16988
aI-13126
aI-9019
aI-4755
aI-423
aI3889
aI8099
aI12126
aI15897
aI19346
aI22416
aI25056
aI27228
aI28900
aI30055
aI30679
aI30775
aI30348
aI29417
aI28007
aI26150
aI23884
aI21253
aI18305
aI15094
aI11671
aI8095
aI4420
aI704
aI-2999
aI-6635
aI-10154
aI-13510
aI-16657
aI-19558
aI-22177
aI-24485
aI-26458
aI-28076
aI-29325
aI-30196
aI-30685
aI-30794
aI-30529
aI-29899
aI-28919
aI-27608
aI-25987
aI-24080
aI-21915
aI-19520
aI-16926
aI-14166
aI-11272
aI-8277
aI-5216
aI-2120
aI978
aI4046
aI7055
aI9976
aI12781
aI15448
aI17952
aI20274
aI22395
aI24300
aI25975
aI27412
aI28600
aI29535
aI30213
aI30634
aI30799
aI30711
aI30376
aI29801
aI28996
aI27971
aI26738
aI25311
aI23703
aI21932
aI20011
aI17960
aI15793
aI13530
aI11188
aI8784
aI6337
aI3862
aI1378
aI-1099
aI-3553
aI-5969
aI-8333
aI-10630
aI-12848
aI-14974
aI-16998
aI-18910
aI-20700
aI-22361
aI-23885
aI-25266
aI-26500
aI-27582
aI-28510
aI-29281
aI-29894
aI-30349
aI-30647
aI-30789
aI-30777
aI-30615
aI-30306
aI-29854
aI-29264
aI-28542
aI-27693
aI-26724
aI-25642
aI-24453
aI-23165
aI-21786
aI-20322
aI-18783
aI-17175
aI-15508
aI-13788
aI-12024
aI-10224
aI-8396
aI-6547
aI-4685
aI-2818
aI-952
aI906
aI2748
aI4570
aI6363
aI8123
aI9844
aI11520
aI13148
aI14722
aI16238
aI17692
aI19081
aI20401
aI21650
aI22825
aI23923
aI24944
aI25884
aI26744
aI27522
aI28217
aI28828
aI29357
aI29802
aI30165
aI30445
aI30644
aI30762
aI30801
a.